target datalayout = "e-m:e-p270:32:32-p271:32:32-p272:64:64-i64:64-i128:128-f80:128-n8:16:32:64-S128"
target triple = "x86_64-pc-linux-gnu"

%"class.std::__cxx11::basic_string" = type { %"struct.std::__cxx11::basic_string<char>::_Alloc_hider", i64, %union.anon }
%"struct.std::__cxx11::basic_string<char>::_Alloc_hider" = type { ptr }
%union.anon = type { i64, [8 x i8] }
%"struct.std::_Vector_base" = type { %"struct.std::_Vector_base<jsonnet::internal::FodderElement, std::allocator<jsonnet::internal::FodderElement>>::_Vector_impl" }
%"struct.std::_Vector_base<jsonnet::internal::FodderElement, std::allocator<jsonnet::internal::FodderElement>>::_Vector_impl" = type { %"struct.std::_Vector_base<jsonnet::internal::FodderElement, std::allocator<jsonnet::internal::FodderElement>>::_Vector_impl_data" }
%"struct.std::_Vector_base<jsonnet::internal::FodderElement, std::allocator<jsonnet::internal::FodderElement>>::_Vector_impl_data" = type { ptr, ptr, ptr }
%"class.std::vector" = type { %"struct.std::_Vector_base" }
%"struct.jsonnet::internal::LocationRange" = type { %"class.std::__cxx11::basic_string", %"struct.jsonnet::internal::Location", %"struct.jsonnet::internal::Location" }
%"struct.jsonnet::internal::Location" = type { i64, i64 }
%"struct.jsonnet::internal::AST" = type { ptr, %"struct.jsonnet::internal::LocationRange", i32, %"class.std::vector", %"class.std::vector.40" }
%"class.std::vector.40" = type { %"struct.std::_Vector_base.41" }
%"struct.std::_Vector_base.41" = type { %"struct.std::_Vector_base<const jsonnet::internal::Identifier *, std::allocator<const jsonnet::internal::Identifier *>>::_Vector_impl" }
%"struct.std::_Vector_base<const jsonnet::internal::Identifier *, std::allocator<const jsonnet::internal::Identifier *>>::_Vector_impl" = type { %"struct.std::_Vector_base<const jsonnet::internal::Identifier *, std::allocator<const jsonnet::internal::Identifier *>>::_Vector_impl_data" }
%"struct.std::_Vector_base<const jsonnet::internal::Identifier *, std::allocator<const jsonnet::internal::Identifier *>>::_Vector_impl_data" = type { ptr, ptr, ptr }
%"struct.jsonnet::internal::Binary" = type { %"struct.jsonnet::internal::AST", ptr, %"class.std::vector", i32, ptr }

; Function Attrs: mustprogress uwtable
define void @_ZN7jsonnet8internal12CompilerPass5visitEPNS0_6BinaryE(ptr noundef nonnull align 8 dereferenceable(16) %0, ptr noundef %1) unnamed_addr #4 align 2 {
  %3 = alloca ptr, align 8
  %4 = alloca ptr, align 8
  store ptr %0, ptr %3, align 8, !tbaa !21
  store ptr %1, ptr %4, align 8, !tbaa !120
  %5 = load ptr, ptr %3, align 8
  %6 = load ptr, ptr %4, align 8, !tbaa !120
  %7 = getelementptr inbounds nuw %"struct.jsonnet::internal::Binary", ptr %6, i32 0, i32 1
  %8 = load ptr, ptr %5, align 8, !tbaa !27
  %9 = getelementptr inbounds ptr, ptr %8, i64 6
  %10 = load ptr, ptr %9, align 8
  call void %10(ptr noundef nonnull align 8 dereferenceable(16) %5, ptr noundef nonnull align 8 dereferenceable(8) %7)
  %11 = load ptr, ptr %4, align 8, !tbaa !120
  %12 = getelementptr inbounds nuw %"struct.jsonnet::internal::Binary", ptr %11, i32 0, i32 2
  %13 = load ptr, ptr %5, align 8, !tbaa !27
  %14 = getelementptr inbounds ptr, ptr %13, i64 1
  %15 = load ptr, ptr %14, align 8
  call void %15(ptr noundef nonnull align 8 dereferenceable(16) %5, ptr noundef nonnull align 8 dereferenceable(24) %12)
  %16 = load ptr, ptr %4, align 8, !tbaa !120
  %17 = getelementptr inbounds nuw %"struct.jsonnet::internal::Binary", ptr %16, i32 0, i32 4
  %18 = load ptr, ptr %5, align 8, !tbaa !27
  %19 = getelementptr inbounds ptr, ptr %18, i64 6
  %20 = load ptr, ptr %19, align 8
  call void %20(ptr noundef nonnull align 8 dereferenceable(16) %5, ptr noundef nonnull align 8 dereferenceable(8) %17)
  ret void
}